target datalayout = "e-m:e-p270:32:32-p271:32:32-p272:64:64-i64:64-i128:128-f80:128-n8:16:32:64-S128"
target triple = "x86_64-pc-linux-gnu"

%struct.AVFilterContext = type { ptr, ptr, ptr, ptr, ptr, i32, ptr, ptr, i32, ptr, ptr, i32, i32, ptr, ptr, ptr, ptr, i32, ptr, i32, i32 }
%struct.AVFilterLink = type { ptr, ptr, ptr, ptr, i32, i32, i32, i32, %struct.AVRational, i32, i32, i32, %struct.AVChannelLayout, %struct.AVRational, ptr, i32, %struct.AVFilterFormatsConfig, %struct.AVFilterFormatsConfig }
%struct.AVChannelLayout = type { i32, i32, %union.anon.1, ptr }
%union.anon.1 = type { i64 }
%struct.AVRational = type { i32, i32 }
%struct.AVFilterFormatsConfig = type { ptr, ptr, ptr, ptr, ptr }
%struct.ChromakeyContext = type { ptr, [4 x i8], [2 x i16], float, float, i32, i32, i32, i32, i32, i32, ptr }
%struct.AVPixFmtDescriptor = type { ptr, i8, i8, i8, i64, [4 x %struct.AVComponentDescriptor], ptr }
%struct.AVComponentDescriptor = type { i32, i32, i32, i32, i32 }
%struct.AVFilter = type { ptr, ptr, ptr, ptr, ptr, i32 }

@.str = private unnamed_addr constant [10 x i8] c"chromakey\00", align 1

; Function Attrs: cold nounwind optsize uwtable
define internal i32 @config_output(ptr noundef %0) #1 {
  %2 = alloca ptr, align 8
  %3 = alloca ptr, align 8
  %4 = alloca ptr, align 8
  %5 = alloca ptr, align 8
  %6 = alloca i32, align 4
  store ptr %0, ptr %2, align 8, !tbaa !24
  call void @llvm.lifetime.start.p0(i64 8, ptr %3) #9
  %7 = load ptr, ptr %2, align 8, !tbaa !24
  %8 = getelementptr inbounds nuw %struct.AVFilterLink, ptr %7, i32 0, i32 5
  %9 = load i32, ptr %8, align 4, !tbaa !48
  %10 = call ptr @av_pix_fmt_desc_get(i32 noundef %9)
  store ptr %10, ptr %3, align 8, !tbaa !49
  call void @llvm.lifetime.start.p0(i64 8, ptr %4) #9
  %11 = load ptr, ptr %2, align 8, !tbaa !24
  %12 = getelementptr inbounds nuw %struct.AVFilterLink, ptr %11, i32 0, i32 0
  %13 = load ptr, ptr %12, align 8, !tbaa !56
  store ptr %13, ptr %4, align 8, !tbaa !4
  call void @llvm.lifetime.start.p0(i64 8, ptr %5) #9
  %14 = load ptr, ptr %4, align 8, !tbaa !4
  %15 = getelementptr inbounds nuw %struct.AVFilterContext, ptr %14, i32 0, i32 9
  %16 = load ptr, ptr %15, align 8, !tbaa !36
  store ptr %16, ptr %5, align 8, !tbaa !37
  call void @llvm.lifetime.start.p0(i64 4, ptr %6) #9
  %17 = load ptr, ptr %3, align 8, !tbaa !49
  %18 = getelementptr inbounds nuw %struct.AVPixFmtDescriptor, ptr %17, i32 0, i32 5
  %19 = getelementptr inbounds [4 x %struct.AVComponentDescriptor], ptr %18, i64 0, i64 0
  %20 = getelementptr inbounds nuw %struct.AVComponentDescriptor, ptr %19, i32 0, i32 4
  %21 = load i32, ptr %20, align 8, !tbaa !57
  %22 = load ptr, ptr %5, align 8, !tbaa !37
  %23 = getelementptr inbounds nuw %struct.ChromakeyContext, ptr %22, i32 0, i32 6
  store i32 %21, ptr %23, align 4, !tbaa !59
  %24 = load ptr, ptr %5, align 8, !tbaa !37
  %25 = getelementptr inbounds nuw %struct.ChromakeyContext, ptr %24, i32 0, i32 6
  %26 = load i32, ptr %25, align 4, !tbaa !59
  %27 = sub nsw i32 %26, 1
  %28 = shl i32 1, %27
  %29 = load ptr, ptr %5, align 8, !tbaa !37
  %30 = getelementptr inbounds nuw %struct.ChromakeyContext, ptr %29, i32 0, i32 7
  store i32 %28, ptr %30, align 8, !tbaa !60
  %31 = load ptr, ptr %5, align 8, !tbaa !37
  %32 = getelementptr inbounds nuw %struct.ChromakeyContext, ptr %31, i32 0, i32 6
  %33 = load i32, ptr %32, align 4, !tbaa !59
  %34 = shl i32 1, %33
  %35 = sub nsw i32 %34, 1
  %36 = load ptr, ptr %5, align 8, !tbaa !37
  %37 = getelementptr inbounds nuw %struct.ChromakeyContext, ptr %36, i32 0, i32 8
  store i32 %35, ptr %37, align 4, !tbaa !61
  %38 = load ptr, ptr %5, align 8, !tbaa !37
  %39 = getelementptr inbounds nuw %struct.ChromakeyContext, ptr %38, i32 0, i32 6
  %40 = load i32, ptr %39, align 4, !tbaa !59
  %41 = sub nsw i32 %40, 8
  %42 = shl i32 1, %41
  store i32 %42, ptr %6, align 4, !tbaa !11
  %43 = load ptr, ptr %5, align 8, !tbaa !37
  %44 = getelementptr inbounds nuw %struct.ChromakeyContext, ptr %43, i32 0, i32 5
  %45 = load i32, ptr %44, align 8, !tbaa !62
  %46 = icmp ne i32 %45, 0
  br i1 %46, label %47, label %70

47:                                               ; preds = %1
  %48 = load ptr, ptr %5, align 8, !tbaa !37
  %49 = getelementptr inbounds nuw %struct.ChromakeyContext, ptr %48, i32 0, i32 1
  %50 = getelementptr inbounds [4 x i8], ptr %49, i64 0, i64 1
  %51 = load i8, ptr %50, align 1, !tbaa !63
  %52 = zext i8 %51 to i32
  %53 = load i32, ptr %6, align 4, !tbaa !11
  %54 = mul nsw i32 %52, %53
  %55 = trunc i32 %54 to i16
  %56 = load ptr, ptr %5, align 8, !tbaa !37
  %57 = getelementptr inbounds nuw %struct.ChromakeyContext, ptr %56, i32 0, i32 2
  %58 = getelementptr inbounds [2 x i16], ptr %57, i64 0, i64 0
  store i16 %55, ptr %58, align 4, !tbaa !64
  %59 = load ptr, ptr %5, align 8, !tbaa !37
  %60 = getelementptr inbounds nuw %struct.ChromakeyContext, ptr %59, i32 0, i32 1
  %61 = getelementptr inbounds [4 x i8], ptr %60, i64 0, i64 2
  %62 = load i8, ptr %61, align 2, !tbaa !63
  %63 = zext i8 %62 to i32
  %64 = load i32, ptr %6, align 4, !tbaa !11
  %65 = mul nsw i32 %63, %64
  %66 = trunc i32 %65 to i16
  %67 = load ptr, ptr %5, align 8, !tbaa !37
  %68 = getelementptr inbounds nuw %struct.ChromakeyContext, ptr %67, i32 0, i32 2
  %69 = getelementptr inbounds [2 x i16], ptr %68, i64 0, i64 1
  store i16 %66, ptr %69, align 2, !tbaa !64
  br label %140

70:                                               ; preds = %1
  %71 = call i64 @llvm.lrint.i64.f64(double 0x40659945B6C3760C)
  %72 = sub nsw i64 0, %71
  %73 = load ptr, ptr %5, align 8, !tbaa !37
  %74 = getelementptr inbounds nuw %struct.ChromakeyContext, ptr %73, i32 0, i32 1
  %75 = getelementptr inbounds [4 x i8], ptr %74, i64 0, i64 0
  %76 = load i8, ptr %75, align 8, !tbaa !63
  %77 = zext i8 %76 to i64
  %78 = mul nsw i64 %72, %77
  %79 = call i64 @llvm.lrint.i64.f64(double 0x4075335D249E44FA)
  %80 = load ptr, ptr %5, align 8, !tbaa !37
  %81 = getelementptr inbounds nuw %struct.ChromakeyContext, ptr %80, i32 0, i32 1
  %82 = getelementptr inbounds [4 x i8], ptr %81, i64 0, i64 1
  %83 = load i8, ptr %82, align 1, !tbaa !63
  %84 = zext i8 %83 to i64
  %85 = mul nsw i64 %79, %84
  %86 = sub nsw i64 %78, %85
  %87 = call i64 @llvm.lrint.i64.f64(double 5.120000e+02)
  %88 = load ptr, ptr %5, align 8, !tbaa !37
  %89 = getelementptr inbounds nuw %struct.ChromakeyContext, ptr %88, i32 0, i32 1
  %90 = getelementptr inbounds [4 x i8], ptr %89, i64 0, i64 2
  %91 = load i8, ptr %90, align 2, !tbaa !63
  %92 = zext i8 %91 to i64
  %93 = mul nsw i64 %87, %92
  %94 = add nsw i64 %86, %93
  %95 = add nsw i64 %94, 512
  %96 = sub nsw i64 %95, 1
  %97 = ashr i64 %96, 10
  %98 = add nsw i64 %97, 128
  %99 = load i32, ptr %6, align 4, !tbaa !11
  %100 = sext i32 %99 to i64
  %101 = mul nsw i64 %98, %100
  %102 = trunc i64 %101 to i16
  %103 = load ptr, ptr %5, align 8, !tbaa !37
  %104 = getelementptr inbounds nuw %struct.ChromakeyContext, ptr %103, i32 0, i32 2
  %105 = getelementptr inbounds [2 x i16], ptr %104, i64 0, i64 0
  store i16 %102, ptr %105, align 4, !tbaa !64
  %106 = call i64 @llvm.lrint.i64.f64(double 5.120000e+02)
  %107 = load ptr, ptr %5, align 8, !tbaa !37
  %108 = getelementptr inbounds nuw %struct.ChromakeyContext, ptr %107, i32 0, i32 1
  %109 = getelementptr inbounds [4 x i8], ptr %108, i64 0, i64 0
  %110 = load i8, ptr %109, align 8, !tbaa !63
  %111 = zext i8 %110 to i64
  %112 = mul nsw i64 %106, %111
  %113 = call i64 @llvm.lrint.i64.f64(double 0x407ACBD1244A6224)
  %114 = load ptr, ptr %5, align 8, !tbaa !37
  %115 = getelementptr inbounds nuw %struct.ChromakeyContext, ptr %114, i32 0, i32 1
  %116 = getelementptr inbounds [4 x i8], ptr %115, i64 0, i64 1
  %117 = load i8, ptr %116, align 1, !tbaa !63
  %118 = zext i8 %117 to i64
  %119 = mul nsw i64 %113, %118
  %120 = sub nsw i64 %112, %119
  %121 = call i64 @llvm.lrint.i64.f64(double 0x4054D0BB6ED67770)
  %122 = load ptr, ptr %5, align 8, !tbaa !37
  %123 = getelementptr inbounds nuw %struct.ChromakeyContext, ptr %122, i32 0, i32 1
  %124 = getelementptr inbounds [4 x i8], ptr %123, i64 0, i64 2
  %125 = load i8, ptr %124, align 2, !tbaa !63
  %126 = zext i8 %125 to i64
  %127 = mul nsw i64 %121, %126
  %128 = sub nsw i64 %120, %127
  %129 = add nsw i64 %128, 512
  %130 = sub nsw i64 %129, 1
  %131 = ashr i64 %130, 10
  %132 = add nsw i64 %131, 128
  %133 = load i32, ptr %6, align 4, !tbaa !11
  %134 = sext i32 %133 to i64
  %135 = mul nsw i64 %132, %134
  %136 = trunc i64 %135 to i16
  %137 = load ptr, ptr %5, align 8, !tbaa !37
  %138 = getelementptr inbounds nuw %struct.ChromakeyContext, ptr %137, i32 0, i32 2
  %139 = getelementptr inbounds [2 x i16], ptr %138, i64 0, i64 1
  store i16 %136, ptr %139, align 2, !tbaa !64
  br label %140

140:                                              ; preds = %70, %47
  %141 = load ptr, ptr %4, align 8, !tbaa !4
  %142 = getelementptr inbounds nuw %struct.AVFilterContext, ptr %141, i32 0, i32 1
  %143 = load ptr, ptr %142, align 8, !tbaa !66
  %144 = getelementptr inbounds nuw %struct.AVFilter, ptr %143, i32 0, i32 0
  %145 = load ptr, ptr %144, align 8, !tbaa !67
  %146 = call i32 @strcmp(ptr noundef %145, ptr noundef @.str) #11
  %147 = icmp ne i32 %146, 0
  br i1 %147, label %156, label %148

148:                                              ; preds = %140
  %149 = load ptr, ptr %5, align 8, !tbaa !37
  %150 = getelementptr inbounds nuw %struct.ChromakeyContext, ptr %149, i32 0, i32 6
  %151 = load i32, ptr %150, align 4, !tbaa !59
  %152 = icmp sle i32 %151, 8
  %153 = select i1 %152, ptr @do_chromakey_slice, ptr @do_chromakey16_slice
  %154 = load ptr, ptr %5, align 8, !tbaa !37
  %155 = getelementptr inbounds nuw %struct.ChromakeyContext, ptr %154, i32 0, i32 11
  store ptr %153, ptr %155, align 8, !tbaa !39
  br label %164

156:                                              ; preds = %140
  %157 = load ptr, ptr %5, align 8, !tbaa !37
  %158 = getelementptr inbounds nuw %struct.ChromakeyContext, ptr %157, i32 0, i32 6
  %159 = load i32, ptr %158, align 4, !tbaa !59
  %160 = icmp sle i32 %159, 8
  %161 = select i1 %160, ptr @do_chromahold_slice, ptr @do_chromahold16_slice
  %162 = load ptr, ptr %5, align 8, !tbaa !37
  %163 = getelementptr inbounds nuw %struct.ChromakeyContext, ptr %162, i32 0, i32 11
  store ptr %161, ptr %163, align 8, !tbaa !39
  br label %164

164:                                              ; preds = %156, %148
  call void @llvm.lifetime.end.p0(i64 4, ptr %6) #9
  call void @llvm.lifetime.end.p0(i64 8, ptr %5) #9
  call void @llvm.lifetime.end.p0(i64 8, ptr %4) #9
  call void @llvm.lifetime.end.p0(i64 8, ptr %3) #9
  ret i32 0
}