; Function Attrs: cold nounwind optsize uwtable
define internal noundef i32 @config_output(ptr noundef readonly captures(none) %0) #1 {
  %2 = getelementptr inbounds nuw i8, ptr %0, i64 36
  %3 = load i32, ptr %2, align 4, !tbaa !41
  %4 = tail call ptr @av_pix_fmt_desc_get(i32 noundef %3) #10
  %5 = load ptr, ptr %0, align 8, !tbaa !47
  %6 = getelementptr inbounds nuw i8, ptr %5, i64 72
  %7 = load ptr, ptr %6, align 8, !tbaa !31
  %8 = getelementptr inbounds nuw i8, ptr %4, i64 40
  %9 = load i32, ptr %8, align 8, !tbaa !48
  %10 = getelementptr inbounds nuw i8, ptr %7, i64 28
  store i32 %9, ptr %10, align 4, !tbaa !50
  %11 = add nsw i32 %9, -1
  %12 = shl nuw i32 1, %11
  %13 = getelementptr inbounds nuw i8, ptr %7, i64 32
  store i32 %12, ptr %13, align 8, !tbaa !51
  %notmask = shl nsw i32 -1, %9
  %14 = xor i32 %notmask, -1
  %15 = getelementptr inbounds nuw i8, ptr %7, i64 36
  store i32 %14, ptr %15, align 4, !tbaa !52
  %16 = add nsw i32 %9, -8
  %17 = getelementptr inbounds nuw i8, ptr %7, i64 24
  %18 = load i32, ptr %17, align 8, !tbaa !53
  %.not = icmp eq i32 %18, 0
  br i1 %.not, label %30, label %19

19:                                               ; preds = %1
  %20 = getelementptr inbounds nuw i8, ptr %7, i64 9
  %21 = load i8, ptr %20, align 1, !tbaa !54
  %22 = zext i8 %21 to i32
  %23 = shl i32 %22, %16
  %24 = trunc i32 %23 to i16
  %25 = getelementptr inbounds nuw i8, ptr %7, i64 10
  %26 = load i8, ptr %25, align 2, !tbaa !54
  %27 = zext i8 %26 to i32
  %28 = shl i32 %27, %16
  %29 = trunc i32 %28 to i16
  br label %61

30:                                               ; preds = %1
  %31 = tail call i64 @llvm.lrint.i64.f64(double 0x40659945B6C3760C)
  %32 = getelementptr inbounds nuw i8, ptr %7, i64 8
  %33 = load i8, ptr %32, align 8, !tbaa !54
  %34 = zext i8 %33 to i64
  %35 = tail call i64 @llvm.lrint.i64.f64(double 0x4075335D249E44FA)
  %36 = getelementptr inbounds nuw i8, ptr %7, i64 9
  %37 = load i8, ptr %36, align 1, !tbaa !54
  %38 = zext i8 %37 to i64
  %39 = tail call i64 @llvm.lrint.i64.f64(double 5.120000e+02)
  %40 = getelementptr inbounds nuw i8, ptr %7, i64 10
  %41 = load i8, ptr %40, align 2, !tbaa !54
  %42 = zext i8 %41 to i64
  %43 = mul nsw i64 %39, %42
  %.neg = mul i64 %31, %34
  %.neg32 = mul i64 %35, %38
  %reass.add = add i64 %.neg32, %.neg
  %44 = add i64 %43, 511
  %45 = sub i64 %44, %reass.add
  %46 = lshr i64 %45, 10
  %47 = add nuw nsw i64 %46, 128
  %48 = zext nneg i32 %16 to i64
  %49 = shl i64 %47, %48
  %50 = trunc i64 %49 to i16
  %51 = mul nsw i64 %39, %34
  %52 = tail call i64 @llvm.lrint.i64.f64(double 0x407ACBD1244A6224)
  %53 = tail call i64 @llvm.lrint.i64.f64(double 0x4054D0BB6ED67770)
  %.neg34 = mul i64 %52, %38
  %.neg35 = mul i64 %53, %42
  %reass.add37 = add i64 %.neg35, %.neg34
  %54 = add i64 %51, 511
  %55 = sub i64 %54, %reass.add37
  %56 = lshr i64 %55, 10
  %57 = add nuw nsw i64 %56, 128
  %58 = zext nneg i32 %16 to i64
  %59 = shl i64 %57, %58
  %60 = trunc i64 %59 to i16
  br label %61

61:                                               ; preds = %30, %19
  %.sink39 = phi i16 [ %50, %30 ], [ %24, %19 ]
  %.sink = phi i16 [ %60, %30 ], [ %29, %19 ]
  %62 = getelementptr inbounds nuw i8, ptr %7, i64 12
  store i16 %.sink39, ptr %62, align 4, !tbaa !55
  %63 = getelementptr inbounds nuw i8, ptr %7, i64 14
  store i16 %.sink, ptr %63, align 2, !tbaa !55
  %64 = getelementptr inbounds nuw i8, ptr %5, i64 8
  %65 = load ptr, ptr %64, align 8, !tbaa !57
  %66 = load ptr, ptr %65, align 8, !tbaa !58
  %67 = tail call i32 @strcmp(ptr noundef nonnull dereferenceable(1) %66, ptr noundef nonnull dereferenceable(10) @.str) #12
  %.not31 = icmp eq i32 %67, 0
  %68 = icmp slt i32 %9, 9
  %69 = select i1 %68, ptr @do_chromakey_slice, ptr @do_chromakey16_slice
  %70 = select i1 %68, ptr @do_chromahold_slice, ptr @do_chromahold16_slice
  %.sink40 = select i1 %.not31, ptr %69, ptr %70
  %71 = getelementptr inbounds nuw i8, ptr %7, i64 48
  store ptr %.sink40, ptr %71, align 8, !tbaa !32
  ret i32 0
}